target datalayout = "e-m:e-p270:32:32-p271:32:32-p272:64:64-i64:64-i128:128-f80:128-n8:16:32:64-S128"
target triple = "x86_64-pc-linux-gnu"

%struct.SpringSmoother_struct = type { ptr, ptr }

; Function Attrs: nounwind uwtable
define void @SpringSmoother_delete(ptr noundef %0) #0 {
  %2 = alloca ptr, align 8
  store ptr %0, ptr %2, align 8, !tbaa !114
  %3 = load ptr, ptr %2, align 8, !tbaa !114
  %4 = icmp ne ptr %3, null
  br i1 %4, label %6, label %5

5:                                                ; preds = %1
  br label %24

6:                                                ; preds = %1
  %7 = load ptr, ptr %2, align 8, !tbaa !114
  %8 = getelementptr inbounds nuw %struct.SpringSmoother_struct, ptr %7, i32 0, i32 0
  %9 = load ptr, ptr %8, align 8, !tbaa !123
  %10 = icmp ne ptr %9, null
  br i1 %10, label %11, label %15

11:                                               ; preds = %6
  %12 = load ptr, ptr %2, align 8, !tbaa !114
  %13 = getelementptr inbounds nuw %struct.SpringSmoother_struct, ptr %12, i32 0, i32 0
  %14 = load ptr, ptr %13, align 8, !tbaa !123
  call void @SparseMatrix_delete(ptr noundef %14)
  br label %15

15:                                               ; preds = %11, %6
  %16 = load ptr, ptr %2, align 8, !tbaa !114
  %17 = getelementptr inbounds nuw %struct.SpringSmoother_struct, ptr %16, i32 0, i32 1
  %18 = load ptr, ptr %17, align 8, !tbaa !129
  %19 = icmp ne ptr %18, null
  br i1 %19, label %20, label %24

20:                                               ; preds = %15
  %21 = load ptr, ptr %2, align 8, !tbaa !114
  %22 = getelementptr inbounds nuw %struct.SpringSmoother_struct, ptr %21, i32 0, i32 1
  %23 = load ptr, ptr %22, align 8, !tbaa !129
  call void @spring_electrical_control_delete(ptr noundef %23)
  br label %24

24:                                               ; preds = %5, %20, %15
  ret void
}