; Function Attrs: nounwind uwtable
define void @SpringSmoother_delete(ptr noundef readonly captures(address_is_null) %0) local_unnamed_addr #0 {
  %.not = icmp eq ptr %0, null
  br i1 %.not, label %9, label %2

2:                                                ; preds = %1
  %3 = load ptr, ptr %0, align 8, !tbaa !100
  %.not7 = icmp eq ptr %3, null
  br i1 %.not7, label %5, label %4

4:                                                ; preds = %2
  tail call void @SparseMatrix_delete(ptr noundef nonnull %3) #16
  br label %5

5:                                                ; preds = %4, %2
  %6 = getelementptr inbounds nuw i8, ptr %0, i64 8
  %7 = load ptr, ptr %6, align 8, !tbaa !107
  %.not8 = icmp eq ptr %7, null
  br i1 %.not8, label %9, label %8

8:                                                ; preds = %5
  tail call void @spring_electrical_control_delete(ptr noundef nonnull %7) #16
  br label %9

9:                                                ; preds = %1, %8, %5
  ret void
}